target datalayout = "e-m:e-p270:32:32-p271:32:32-p272:64:64-i64:64-i128:128-f80:128-n8:16:32:64-S128"
target triple = "x86_64-pc-linux-gnu"

%struct.HWContextType = type { i32, ptr, ptr, i64, i64, i64, ptr, ptr, ptr, ptr, ptr, ptr, ptr, ptr, ptr, ptr, ptr, ptr, ptr, ptr, ptr }
%struct.FFHWDeviceContext = type { %struct.AVHWDeviceContext, ptr, ptr }
%struct.AVHWDeviceContext = type { ptr, i32, ptr, ptr, ptr }
%struct.AVBufferRef = type { ptr, ptr, i64 }
%struct.FFHWFramesContext = type { %struct.AVHWFramesContext, ptr, ptr, ptr, i32 }
%struct.AVHWFramesContext = type { ptr, ptr, ptr, ptr, ptr, ptr, ptr, i32, i32, i32, i32, i32 }

@hwframe_ctx_class = internal constant { ptr, ptr, ptr, i32, i32, i32, i32, ptr, ptr, ptr, ptr, i32, [4 x i8] } { ptr @.str.23, ptr @av_default_item_name, ptr null, i32 3932772, i32 0, i32 0, i32 0, ptr null, ptr null, ptr null, ptr null, i32 0, [4 x i8] zeroinitializer }, align 8

; Function Attrs: nounwind uwtable
define ptr @av_hwframe_ctx_alloc(ptr noundef %0) #0 {
  %2 = alloca ptr, align 8
  %3 = alloca ptr, align 8
  %4 = alloca ptr, align 8
  %5 = alloca ptr, align 8
  %6 = alloca ptr, align 8
  %7 = alloca ptr, align 8
  %8 = alloca ptr, align 8
  %9 = alloca ptr, align 8
  %10 = alloca i32, align 4
  store ptr %0, ptr %3, align 8, !tbaa !28
  call void @llvm.lifetime.start.p0(i64 8, ptr %4) #5
  %11 = load ptr, ptr %3, align 8, !tbaa !28
  %12 = getelementptr inbounds nuw %struct.AVBufferRef, ptr %11, i32 0, i32 1
  %13 = load ptr, ptr %12, align 8, !tbaa !37
  store ptr %13, ptr %4, align 8, !tbaa !20
  call void @llvm.lifetime.start.p0(i64 8, ptr %5) #5
  %14 = load ptr, ptr %4, align 8, !tbaa !20
  %15 = getelementptr inbounds nuw %struct.FFHWDeviceContext, ptr %14, i32 0, i32 1
  %16 = load ptr, ptr %15, align 8, !tbaa !32
  store ptr %16, ptr %5, align 8, !tbaa !13
  call void @llvm.lifetime.start.p0(i64 8, ptr %6) #5
  call void @llvm.lifetime.start.p0(i64 8, ptr %7) #5
  call void @llvm.lifetime.start.p0(i64 8, ptr %8) #5
  call void @llvm.lifetime.start.p0(i64 8, ptr %9) #5
  store ptr null, ptr %9, align 8, !tbaa !28
  %17 = call noalias ptr @av_mallocz(i64 noundef 112)
  store ptr %17, ptr %6, align 8, !tbaa !41
  %18 = load ptr, ptr %6, align 8, !tbaa !41
  %19 = icmp ne ptr %18, null
  br i1 %19, label %21, label %20

20:                                               ; preds = %1
  store ptr null, ptr %2, align 8
  store i32 1, ptr %10, align 4
  br label %74

21:                                               ; preds = %1
  %22 = load ptr, ptr %6, align 8, !tbaa !41
  %23 = getelementptr inbounds nuw %struct.FFHWFramesContext, ptr %22, i32 0, i32 0
  store ptr %23, ptr %7, align 8, !tbaa !43
  %24 = load ptr, ptr %5, align 8, !tbaa !13
  %25 = getelementptr inbounds nuw %struct.HWContextType, ptr %24, i32 0, i32 5
  %26 = load i64, ptr %25, align 8, !tbaa !45
  %27 = icmp ne i64 %26, 0
  br i1 %27, label %28, label %41

28:                                               ; preds = %21
  %29 = load ptr, ptr %5, align 8, !tbaa !13
  %30 = getelementptr inbounds nuw %struct.HWContextType, ptr %29, i32 0, i32 5
  %31 = load i64, ptr %30, align 8, !tbaa !45
  %32 = call noalias ptr @av_mallocz(i64 noundef %31)
  %33 = load ptr, ptr %7, align 8, !tbaa !43
  %34 = getelementptr inbounds nuw %struct.AVHWFramesContext, ptr %33, i32 0, i32 3
  store ptr %32, ptr %34, align 8, !tbaa !46
  %35 = load ptr, ptr %7, align 8, !tbaa !43
  %36 = getelementptr inbounds nuw %struct.AVHWFramesContext, ptr %35, i32 0, i32 3
  %37 = load ptr, ptr %36, align 8, !tbaa !46
  %38 = icmp ne ptr %37, null
  br i1 %38, label %40, label %39

39:                                               ; preds = %28
  br label %71

40:                                               ; preds = %28
  br label %41

41:                                               ; preds = %40, %21
  %42 = load ptr, ptr %3, align 8, !tbaa !28
  %43 = call ptr @av_buffer_ref(ptr noundef %42)
  store ptr %43, ptr %9, align 8, !tbaa !28
  %44 = load ptr, ptr %9, align 8, !tbaa !28
  %45 = icmp ne ptr %44, null
  br i1 %45, label %47, label %46

46:                                               ; preds = %41
  br label %71

47:                                               ; preds = %41
  %48 = load ptr, ptr %7, align 8, !tbaa !43
  %49 = call ptr @av_buffer_create(ptr noundef %48, i64 noundef 80, ptr noundef @hwframe_ctx_free, ptr noundef null, i32 noundef 1)
  store ptr %49, ptr %8, align 8, !tbaa !28
  %50 = load ptr, ptr %8, align 8, !tbaa !28
  %51 = icmp ne ptr %50, null
  br i1 %51, label %53, label %52

52:                                               ; preds = %47
  br label %71

53:                                               ; preds = %47
  %54 = load ptr, ptr %7, align 8, !tbaa !43
  %55 = getelementptr inbounds nuw %struct.AVHWFramesContext, ptr %54, i32 0, i32 0
  store ptr @hwframe_ctx_class, ptr %55, align 8, !tbaa !49
  %56 = load ptr, ptr %9, align 8, !tbaa !28
  %57 = load ptr, ptr %7, align 8, !tbaa !43
  %58 = getelementptr inbounds nuw %struct.AVHWFramesContext, ptr %57, i32 0, i32 1
  store ptr %56, ptr %58, align 8, !tbaa !50
  %59 = load ptr, ptr %4, align 8, !tbaa !20
  %60 = getelementptr inbounds nuw %struct.FFHWDeviceContext, ptr %59, i32 0, i32 0
  %61 = load ptr, ptr %7, align 8, !tbaa !43
  %62 = getelementptr inbounds nuw %struct.AVHWFramesContext, ptr %61, i32 0, i32 2
  store ptr %60, ptr %62, align 8, !tbaa !51
  %63 = load ptr, ptr %7, align 8, !tbaa !43
  %64 = getelementptr inbounds nuw %struct.AVHWFramesContext, ptr %63, i32 0, i32 8
  store i32 -1, ptr %64, align 4, !tbaa !52
  %65 = load ptr, ptr %7, align 8, !tbaa !43
  %66 = getelementptr inbounds nuw %struct.AVHWFramesContext, ptr %65, i32 0, i32 9
  store i32 -1, ptr %66, align 8, !tbaa !53
  %67 = load ptr, ptr %5, align 8, !tbaa !13
  %68 = load ptr, ptr %6, align 8, !tbaa !41
  %69 = getelementptr inbounds nuw %struct.FFHWFramesContext, ptr %68, i32 0, i32 1
  store ptr %67, ptr %69, align 8, !tbaa !54
  %70 = load ptr, ptr %8, align 8, !tbaa !28
  store ptr %70, ptr %2, align 8
  store i32 1, ptr %10, align 4
  br label %74

71:                                               ; preds = %52, %46, %39
  call void @av_buffer_unref(ptr noundef %9)
  %72 = load ptr, ptr %7, align 8, !tbaa !43
  %73 = getelementptr inbounds nuw %struct.AVHWFramesContext, ptr %72, i32 0, i32 3
  call void @av_freep(ptr noundef %73)
  call void @av_freep(ptr noundef %7)
  store ptr null, ptr %2, align 8
  store i32 1, ptr %10, align 4
  br label %74

74:                                               ; preds = %71, %53, %20
  call void @llvm.lifetime.end.p0(i64 8, ptr %9) #5
  call void @llvm.lifetime.end.p0(i64 8, ptr %8) #5
  call void @llvm.lifetime.end.p0(i64 8, ptr %7) #5
  call void @llvm.lifetime.end.p0(i64 8, ptr %6) #5
  call void @llvm.lifetime.end.p0(i64 8, ptr %5) #5
  call void @llvm.lifetime.end.p0(i64 8, ptr %4) #5
  %75 = load ptr, ptr %2, align 8
  ret ptr %75
}