; Function Attrs: nounwind uwtable
define ptr @av_hwframe_ctx_alloc(ptr noundef %0) local_unnamed_addr #5 {
  %2 = alloca ptr, align 8
  %3 = alloca ptr, align 8
  %4 = getelementptr inbounds nuw i8, ptr %0, i64 8
  %5 = load ptr, ptr %4, align 8, !tbaa !32
  %6 = getelementptr inbounds nuw i8, ptr %5, i64 40
  %7 = load ptr, ptr %6, align 8, !tbaa !27
  call void @llvm.lifetime.start.p0(i64 8, ptr nonnull %2) #11
  call void @llvm.lifetime.start.p0(i64 8, ptr nonnull %3) #11
  store ptr null, ptr %3, align 8, !tbaa !36
  %8 = tail call noalias ptr @av_mallocz(i64 noundef 112) #11
  %.not = icmp eq ptr %8, null
  br i1 %.not, label %27, label %9

9:                                                ; preds = %1
  store ptr %8, ptr %2, align 8, !tbaa !37
  %10 = getelementptr inbounds nuw i8, ptr %7, i64 40
  %11 = load i64, ptr %10, align 8, !tbaa !39
  %.not16 = icmp eq i64 %11, 0
  br i1 %.not16, label %15, label %12

12:                                               ; preds = %9
  %13 = tail call noalias ptr @av_mallocz(i64 noundef %11) #11
  %14 = getelementptr inbounds nuw i8, ptr %8, i64 24
  store ptr %13, ptr %14, align 8, !tbaa !40
  %.not17 = icmp eq ptr %13, null
  br i1 %.not17, label %25, label %15

15:                                               ; preds = %12, %9
  %16 = tail call ptr @av_buffer_ref(ptr noundef nonnull %0) #11
  store ptr %16, ptr %3, align 8, !tbaa !36
  %.not18 = icmp eq ptr %16, null
  br i1 %.not18, label %25, label %17

17:                                               ; preds = %15
  %18 = tail call ptr @av_buffer_create(ptr noundef nonnull %8, i64 noundef 80, ptr noundef nonnull @hwframe_ctx_free, ptr noundef null, i32 noundef 1) #11
  %.not19 = icmp eq ptr %18, null
  br i1 %.not19, label %25, label %19

19:                                               ; preds = %17
  store ptr @hwframe_ctx_class, ptr %8, align 8, !tbaa !43
  %20 = getelementptr inbounds nuw i8, ptr %8, i64 8
  store ptr %16, ptr %20, align 8, !tbaa !44
  %21 = getelementptr inbounds nuw i8, ptr %8, i64 16
  store ptr %5, ptr %21, align 8, !tbaa !45
  %22 = getelementptr inbounds nuw i8, ptr %8, i64 60
  store i32 -1, ptr %22, align 4, !tbaa !46
  %23 = getelementptr inbounds nuw i8, ptr %8, i64 64
  store i32 -1, ptr %23, align 8, !tbaa !47
  %24 = getelementptr inbounds nuw i8, ptr %8, i64 80
  store ptr %7, ptr %24, align 8, !tbaa !48
  br label %27

25:                                               ; preds = %17, %15, %12
  call void @av_buffer_unref(ptr noundef nonnull %3) #11
  %26 = getelementptr inbounds nuw i8, ptr %8, i64 24
  call void @av_freep(ptr noundef nonnull %26) #11
  call void @av_freep(ptr noundef nonnull %2) #11
  br label %27

27:                                               ; preds = %1, %25, %19
  %.0 = phi ptr [ %18, %19 ], [ null, %25 ], [ null, %1 ]
  call void @llvm.lifetime.end.p0(i64 8, ptr nonnull %3) #11
  call void @llvm.lifetime.end.p0(i64 8, ptr nonnull %2) #11
  ret ptr %.0
}